target datalayout = "e-m:e-p270:32:32-p271:32:32-p272:64:64-i64:64-i128:128-f80:128-n8:16:32:64-S128"
target triple = "x86_64-pc-linux-gnu"

%"class.zmq::msg_t" = type { %union.anon }
%union.anon = type { %struct.anon }
%struct.anon = type { ptr, [34 x i8], i8, i8, i32, %"union.zmq::msg_t::group_t" }
%"union.zmq::msg_t::group_t" = type { %struct.anon.1 }
%struct.anon.1 = type { i8, ptr }
%"class.zmq::pipe_t" = type { %"class.zmq::object_t.base", [4 x i8], %"class.zmq::array_item_t.base", [4 x i8], %"class.zmq::array_item_t.base.11", [4 x i8], %"class.zmq::array_item_t.base.13", ptr, ptr, i8, i8, i32, i32, i32, i32, i64, i64, i64, ptr, ptr, i32, i8, [3 x i8], %"struct.zmq::blob_t", i32, i8, [3 x i8], %"struct.zmq::endpoint_uri_pair_t", %"class.zmq::msg_t" }
%"class.zmq::object_t.base" = type <{ ptr, ptr, i32 }>
%"class.zmq::array_item_t.base" = type <{ ptr, i32 }>
%"class.zmq::array_item_t.base.11" = type <{ ptr, i32 }>
%"class.zmq::array_item_t.base.13" = type <{ ptr, i32 }>
%"struct.zmq::blob_t" = type <{ ptr, i64, i8, [7 x i8] }>
%"struct.zmq::endpoint_uri_pair_t" = type <{ %"class.std::__cxx11::basic_string", %"class.std::__cxx11::basic_string", i32, [4 x i8] }>
%"class.std::__cxx11::basic_string" = type { %"struct.std::__cxx11::basic_string<char>::_Alloc_hider", i64, %union.anon.14 }
%"struct.std::__cxx11::basic_string<char>::_Alloc_hider" = type { ptr }
%union.anon.14 = type { i64, [8 x i8] }

@stderr = external global ptr, align 8
@.str.1 = private unnamed_addr constant [104 x i8] c"generated/home/dtcxzyw/WorkSpace/Projects/compilers/llvm-opt-benchmark/bench/libzmq/libzmq/src/pipe.cpp\00", align 1
@.str.4 = private unnamed_addr constant [30 x i8] c"Assertion failed: %s (%s:%d)\0A\00", align 1
@.str.9 = private unnamed_addr constant [8 x i8] c"rc == 0\00", align 1
@.str.17 = private unnamed_addr constant [52 x i8] c"_state == active || _state == waiting_for_delimiter\00", align 1

; Function Attrs: mustprogress uwtable
define void @_ZN3zmq6pipe_t17process_delimiterEv(ptr noundef nonnull align 8 dereferenceable(328) %0) #0 align 2 {
  %2 = alloca ptr, align 8
  store ptr %0, ptr %2, align 8, !tbaa !27
  %3 = load ptr, ptr %2, align 8
  br label %4

4:                                                ; preds = %1
  %5 = getelementptr inbounds nuw %"class.zmq::pipe_t", ptr %3, i32 0, i32 20
  %6 = load i32, ptr %5, align 8, !tbaa !110
  %7 = icmp eq i32 %6, 0
  br i1 %7, label %12, label %8

8:                                                ; preds = %4
  %9 = getelementptr inbounds nuw %"class.zmq::pipe_t", ptr %3, i32 0, i32 20
  %10 = load i32, ptr %9, align 8, !tbaa !110
  %11 = icmp eq i32 %10, 2
  br label %12

12:                                               ; preds = %8, %4
  %13 = phi i1 [ true, %4 ], [ %11, %8 ]
  %14 = xor i1 %13, true
  %15 = zext i1 %14 to i64
  %16 = call i64 @llvm.expect.i64(i64 %15, i64 0)
  %17 = icmp ne i64 %16, 0
  br i1 %17, label %18, label %23

18:                                               ; preds = %12
  %19 = load ptr, ptr @stderr, align 8, !tbaa !21
  %20 = call i32 (ptr, ptr, ...) @fprintf(ptr noundef %19, ptr noundef @.str.4, ptr noundef @.str.17, ptr noundef @.str.1, i32 noundef 477) #17
  %21 = load ptr, ptr @stderr, align 8, !tbaa !21
  %22 = call i32 @fflush(ptr noundef %21)
  call void @_ZN3zmq9zmq_abortEPKc(ptr noundef @.str.17)
  br label %23

23:                                               ; preds = %18, %12
  br label %24

24:                                               ; preds = %23
  %25 = getelementptr inbounds nuw %"class.zmq::pipe_t", ptr %3, i32 0, i32 20
  %26 = load i32, ptr %25, align 8, !tbaa !110
  %27 = icmp eq i32 %26, 0
  br i1 %27, label %28, label %30

28:                                               ; preds = %24
  %29 = getelementptr inbounds nuw %"class.zmq::pipe_t", ptr %3, i32 0, i32 20
  store i32 1, ptr %29, align 8, !tbaa !110
  br label %35

30:                                               ; preds = %24
  call void @_ZNK3zmq6pipe_t8rollbackEv(ptr noundef nonnull align 8 dereferenceable(328) %3)
  %31 = getelementptr inbounds nuw %"class.zmq::pipe_t", ptr %3, i32 0, i32 8
  store ptr null, ptr %31, align 8, !tbaa !108
  %32 = getelementptr inbounds nuw %"class.zmq::pipe_t", ptr %3, i32 0, i32 18
  %33 = load ptr, ptr %32, align 8, !tbaa !53
  call void @_ZN3zmq8object_t18send_pipe_term_ackEPNS_6pipe_tE(ptr noundef nonnull align 8 dereferenceable(20) %3, ptr noundef %33)
  %34 = getelementptr inbounds nuw %"class.zmq::pipe_t", ptr %3, i32 0, i32 20
  store i32 3, ptr %34, align 8, !tbaa !110
  br label %35

35:                                               ; preds = %30, %28
  ret void
}

; Function Attrs: mustprogress uwtable
define noundef zeroext i1 @_ZN3zmq6pipe_t4readEPNS_5msg_tE(ptr noundef nonnull align 8 dereferenceable(328) %0, ptr noundef %1) #0 align 2 {
  %3 = alloca i1, align 1
  %4 = alloca ptr, align 8
  %5 = alloca ptr, align 8
  %6 = alloca i32, align 4
  store ptr %0, ptr %4, align 8, !tbaa !27
  store ptr %1, ptr %5, align 8, !tbaa !107
  %7 = load ptr, ptr %4, align 8
  %8 = getelementptr inbounds nuw %"class.zmq::pipe_t", ptr %7, i32 0, i32 9
  %9 = load i8, ptr %8, align 8, !tbaa !117, !range !17, !noundef !18
  %10 = trunc i8 %9 to i1
  %11 = xor i1 %10, true
  %12 = zext i1 %11 to i64
  %13 = call i64 @llvm.expect.i64(i64 %12, i64 0)
  %14 = icmp ne i64 %13, 0
  br i1 %14, label %15, label %16

15:                                               ; preds = %2
  store i1 false, ptr %3, align 1
  br label %102

16:                                               ; preds = %2
  %17 = getelementptr inbounds nuw %"class.zmq::pipe_t", ptr %7, i32 0, i32 20
  %18 = load i32, ptr %17, align 8, !tbaa !110
  %19 = icmp ne i32 %18, 0
  br i1 %19, label %20, label %24

20:                                               ; preds = %16
  %21 = getelementptr inbounds nuw %"class.zmq::pipe_t", ptr %7, i32 0, i32 20
  %22 = load i32, ptr %21, align 8, !tbaa !110
  %23 = icmp ne i32 %22, 2
  br label %24

24:                                               ; preds = %20, %16
  %25 = phi i1 [ false, %16 ], [ %23, %20 ]
  %26 = zext i1 %25 to i64
  %27 = call i64 @llvm.expect.i64(i64 %26, i64 0)
  %28 = icmp ne i64 %27, 0
  br i1 %28, label %29, label %30

29:                                               ; preds = %24
  store i1 false, ptr %3, align 1
  br label %102

30:                                               ; preds = %24
  br label %31

31:                                               ; preds = %30, %66
  %32 = getelementptr inbounds nuw %"class.zmq::pipe_t", ptr %7, i32 0, i32 7
  %33 = load ptr, ptr %32, align 8, !tbaa !116
  %34 = load ptr, ptr %5, align 8, !tbaa !107
  %35 = load ptr, ptr %33, align 8, !tbaa !31
  %36 = getelementptr inbounds ptr, ptr %35, i64 6
  %37 = load ptr, ptr %36, align 8
  %38 = call noundef zeroext i1 %37(ptr noundef nonnull align 8 dereferenceable(8) %33, ptr noundef %34)
  br i1 %38, label %41, label %39

39:                                               ; preds = %31
  %40 = getelementptr inbounds nuw %"class.zmq::pipe_t", ptr %7, i32 0, i32 9
  store i8 0, ptr %40, align 8, !tbaa !117
  store i1 false, ptr %3, align 1
  br label %102

41:                                               ; preds = %31
  %42 = load ptr, ptr %5, align 8, !tbaa !107
  %43 = call noundef zeroext i1 @_ZNK3zmq5msg_t13is_credentialEv(ptr noundef nonnull align 8 dereferenceable(64) %42)
  %44 = zext i1 %43 to i64
  %45 = call i64 @llvm.expect.i64(i64 %44, i64 0)
  %46 = icmp ne i64 %45, 0
  br i1 %46, label %47, label %65

47:                                               ; preds = %41
  call void @llvm.lifetime.start.p0(i64 4, ptr %6) #17
  %48 = load ptr, ptr %5, align 8, !tbaa !107
  %49 = call noundef i32 @_ZN3zmq5msg_t5closeEv(ptr noundef nonnull align 8 dereferenceable(64) %48)
  store i32 %49, ptr %6, align 4, !tbaa !25
  br label %50

50:                                               ; preds = %47
  %51 = load i32, ptr %6, align 4, !tbaa !25
  %52 = icmp eq i32 %51, 0
  %53 = xor i1 %52, true
  %54 = zext i1 %53 to i64
  %55 = call i64 @llvm.expect.i64(i64 %54, i64 0)
  %56 = icmp ne i64 %55, 0
  br i1 %56, label %57, label %62

57:                                               ; preds = %50
  %58 = load ptr, ptr @stderr, align 8, !tbaa !21
  %59 = call i32 (ptr, ptr, ...) @fprintf(ptr noundef %58, ptr noundef @.str.4, ptr noundef @.str.9, ptr noundef @.str.1, i32 noundef 186) #17
  %60 = load ptr, ptr @stderr, align 8, !tbaa !21
  %61 = call i32 @fflush(ptr noundef %60)
  call void @_ZN3zmq9zmq_abortEPKc(ptr noundef @.str.9)
  br label %62

62:                                               ; preds = %57, %50
  br label %63

63:                                               ; preds = %62
  br label %64

64:                                               ; preds = %63
  call void @llvm.lifetime.end.p0(i64 4, ptr %6) #17
  br label %66

65:                                               ; preds = %41
  br label %67

66:                                               ; preds = %64
  br label %31, !llvm.loop !147

67:                                               ; preds = %65
  %68 = load ptr, ptr %5, align 8, !tbaa !107
  %69 = call noundef zeroext i1 @_ZNK3zmq5msg_t12is_delimiterEv(ptr noundef nonnull align 8 dereferenceable(64) %68)
  br i1 %69, label %70, label %71

70:                                               ; preds = %67
  call void @_ZN3zmq6pipe_t17process_delimiterEv(ptr noundef nonnull align 8 dereferenceable(328) %7)
  store i1 false, ptr %3, align 1
  br label %102

71:                                               ; preds = %67
  %72 = load ptr, ptr %5, align 8, !tbaa !107
  %73 = call noundef zeroext i8 @_ZNK3zmq5msg_t5flagsEv(ptr noundef nonnull align 8 dereferenceable(64) %72)
  %74 = zext i8 %73 to i32
  %75 = and i32 %74, 1
  %76 = icmp ne i32 %75, 0
  br i1 %76, label %84, label %77

77:                                               ; preds = %71
  %78 = load ptr, ptr %5, align 8, !tbaa !107
  %79 = call noundef zeroext i1 @_ZNK3zmq5msg_t13is_routing_idEv(ptr noundef nonnull align 8 dereferenceable(64) %78)
  br i1 %79, label %84, label %80

80:                                               ; preds = %77
  %81 = getelementptr inbounds nuw %"class.zmq::pipe_t", ptr %7, i32 0, i32 15
  %82 = load i64, ptr %81, align 8, !tbaa !123
  %83 = add i64 %82, 1
  store i64 %83, ptr %81, align 8, !tbaa !123
  br label %84

84:                                               ; preds = %80, %77, %71
  %85 = getelementptr inbounds nuw %"class.zmq::pipe_t", ptr %7, i32 0, i32 12
  %86 = load i32, ptr %85, align 8, !tbaa !120
  %87 = icmp sgt i32 %86, 0
  br i1 %87, label %88, label %101

88:                                               ; preds = %84
  %89 = getelementptr inbounds nuw %"class.zmq::pipe_t", ptr %7, i32 0, i32 15
  %90 = load i64, ptr %89, align 8, !tbaa !123
  %91 = getelementptr inbounds nuw %"class.zmq::pipe_t", ptr %7, i32 0, i32 12
  %92 = load i32, ptr %91, align 8, !tbaa !120
  %93 = sext i32 %92 to i64
  %94 = urem i64 %90, %93
  %95 = icmp eq i64 %94, 0
  br i1 %95, label %96, label %101

96:                                               ; preds = %88
  %97 = getelementptr inbounds nuw %"class.zmq::pipe_t", ptr %7, i32 0, i32 18
  %98 = load ptr, ptr %97, align 8, !tbaa !53
  %99 = getelementptr inbounds nuw %"class.zmq::pipe_t", ptr %7, i32 0, i32 15
  %100 = load i64, ptr %99, align 8, !tbaa !123
  call void @_ZN3zmq8object_t19send_activate_writeEPNS_6pipe_tEm(ptr noundef nonnull align 8 dereferenceable(20) %7, ptr noundef %98, i64 noundef %100)
  br label %101

101:                                              ; preds = %96, %88, %84
  store i1 true, ptr %3, align 1
  br label %102

102:                                              ; preds = %101, %70, %39, %29, %15
  %103 = load i1, ptr %3, align 1
  ret i1 %103
}