; Function Attrs: mustprogress uwtable
define noundef zeroext i1 @_ZN3zmq6pipe_t4readEPNS_5msg_tE(ptr noundef nonnull align 8 dereferenceable(328) %0, ptr noundef %1) local_unnamed_addr #0 align 2 {
  %3 = getelementptr inbounds nuw i8, ptr %0, i64 88
  %4 = load i8, ptr %3, align 8, !tbaa !112, !range !7, !noundef !8
  %5 = trunc nuw i8 %4 to i1
  br i1 %5, label %6, label %69, !prof !47

6:                                                ; preds = %2
  %7 = getelementptr inbounds nuw i8, ptr %0, i64 152
  %8 = load i32, ptr %7, align 8, !tbaa !105
  %9 = and i32 %8, -3
  %spec.select.not = icmp eq i32 %9, 0
  br i1 %spec.select.not, label %.preheader, label %69, !prof !47

.preheader:                                       ; preds = %6
  %10 = getelementptr inbounds nuw i8, ptr %0, i64 72
  %11 = load ptr, ptr %10, align 8, !tbaa !111
  %12 = load ptr, ptr %11, align 8, !tbaa !9
  %13 = getelementptr inbounds nuw i8, ptr %12, i64 48
  %14 = load ptr, ptr %13, align 8
  %15 = tail call noundef zeroext i1 %14(ptr noundef nonnull align 8 dereferenceable(8) %11, ptr noundef %1)
  br i1 %15, label %.lr.ph, label %._crit_edge

._crit_edge:                                      ; preds = %24, %.preheader
  store i8 0, ptr %3, align 8, !tbaa !112
  br label %69

.lr.ph:                                           ; preds = %.preheader, %24
  %16 = tail call noundef zeroext i1 @_ZNK3zmq5msg_t13is_credentialEv(ptr noundef nonnull align 8 dereferenceable(64) %1)
  br i1 %16, label %17, label %30, !prof !54

17:                                               ; preds = %.lr.ph
  %18 = tail call noundef i32 @_ZN3zmq5msg_t5closeEv(ptr noundef nonnull align 8 dereferenceable(64) %1)
  %.not11 = icmp eq i32 %18, 0
  br i1 %.not11, label %24, label %19, !prof !47

19:                                               ; preds = %17
  %20 = load ptr, ptr @stderr, align 8, !tbaa !21
  %21 = tail call i32 (ptr, ptr, ...) @fprintf(ptr noundef %20, ptr noundef nonnull @.str.4, ptr noundef nonnull @.str.9, ptr noundef nonnull @.str.1, i32 noundef 186) #26
  %22 = load ptr, ptr @stderr, align 8, !tbaa !21
  %23 = tail call i32 @fflush(ptr noundef %22)
  tail call void @_ZN3zmq9zmq_abortEPKc(ptr noundef nonnull @.str.9)
  br label %24

24:                                               ; preds = %19, %17
  %25 = load ptr, ptr %10, align 8, !tbaa !111
  %26 = load ptr, ptr %25, align 8, !tbaa !9
  %27 = getelementptr inbounds nuw i8, ptr %26, i64 48
  %28 = load ptr, ptr %27, align 8
  %29 = tail call noundef zeroext i1 %28(ptr noundef nonnull align 8 dereferenceable(8) %25, ptr noundef nonnull %1)
  br i1 %29, label %.lr.ph, label %._crit_edge, !llvm.loop !128

30:                                               ; preds = %.lr.ph
  %31 = tail call noundef zeroext i1 @_ZNK3zmq5msg_t12is_delimiterEv(ptr noundef nonnull align 8 dereferenceable(64) %1)
  br i1 %31, label %32, label %47

32:                                               ; preds = %30
  %33 = load i32, ptr %7, align 8, !tbaa !105
  %34 = and i32 %33, -3
  %spec.select.not.i = icmp eq i32 %34, 0
  br i1 %spec.select.not.i, label %40, label %35, !prof !47

35:                                               ; preds = %32
  %36 = load ptr, ptr @stderr, align 8, !tbaa !21
  %37 = tail call i32 (ptr, ptr, ...) @fprintf(ptr noundef %36, ptr noundef nonnull @.str.4, ptr noundef nonnull @.str.17, ptr noundef nonnull @.str.1, i32 noundef 477) #26
  %38 = load ptr, ptr @stderr, align 8, !tbaa !21
  %39 = tail call i32 @fflush(ptr noundef %38)
  tail call void @_ZN3zmq9zmq_abortEPKc(ptr noundef nonnull @.str.17)
  %.pr.i = load i32, ptr %7, align 8, !tbaa !105
  br label %40

40:                                               ; preds = %35, %32
  %41 = phi i32 [ %33, %32 ], [ %.pr.i, %35 ]
  %42 = icmp eq i32 %41, 0
  br i1 %42, label %_ZN3zmq6pipe_t17process_delimiterEv.exit, label %43

43:                                               ; preds = %40
  tail call void @_ZNK3zmq6pipe_t8rollbackEv(ptr noundef nonnull align 8 dereferenceable(328) %0)
  %44 = getelementptr inbounds nuw i8, ptr %0, i64 80
  store ptr null, ptr %44, align 8, !tbaa !103
  %45 = getelementptr inbounds nuw i8, ptr %0, i64 136
  %46 = load ptr, ptr %45, align 8, !tbaa !29
  tail call void @_ZN3zmq8object_t18send_pipe_term_ackEPNS_6pipe_tE(ptr noundef nonnull align 8 dereferenceable(328) %0, ptr noundef %46)
  br label %_ZN3zmq6pipe_t17process_delimiterEv.exit

_ZN3zmq6pipe_t17process_delimiterEv.exit:         ; preds = %40, %43
  %storemerge.i = phi i32 [ 3, %43 ], [ 1, %40 ]
  store i32 %storemerge.i, ptr %7, align 8, !tbaa !105
  br label %69

47:                                               ; preds = %30
  %48 = tail call noundef zeroext i8 @_ZNK3zmq5msg_t5flagsEv(ptr noundef nonnull align 8 dereferenceable(64) %1)
  %49 = and i8 %48, 1
  %.not10 = icmp eq i8 %49, 0
  br i1 %.not10, label %50, label %56

50:                                               ; preds = %47
  %51 = tail call noundef zeroext i1 @_ZNK3zmq5msg_t13is_routing_idEv(ptr noundef nonnull align 8 dereferenceable(64) %1)
  br i1 %51, label %56, label %52

52:                                               ; preds = %50
  %53 = getelementptr inbounds nuw i8, ptr %0, i64 112
  %54 = load i64, ptr %53, align 8, !tbaa !130
  %55 = add i64 %54, 1
  store i64 %55, ptr %53, align 8, !tbaa !130
  br label %56

56:                                               ; preds = %52, %50, %47
  %57 = getelementptr inbounds nuw i8, ptr %0, i64 96
  %58 = load i32, ptr %57, align 8, !tbaa !113
  %59 = icmp sgt i32 %58, 0
  br i1 %59, label %60, label %69

60:                                               ; preds = %56
  %61 = getelementptr inbounds nuw i8, ptr %0, i64 112
  %62 = load i64, ptr %61, align 8, !tbaa !130
  %63 = zext nneg i32 %58 to i64
  %64 = urem i64 %62, %63
  %65 = icmp eq i64 %64, 0
  br i1 %65, label %66, label %69

66:                                               ; preds = %60
  %67 = getelementptr inbounds nuw i8, ptr %0, i64 136
  %68 = load ptr, ptr %67, align 8, !tbaa !29
  tail call void @_ZN3zmq8object_t19send_activate_writeEPNS_6pipe_tEm(ptr noundef nonnull align 8 dereferenceable(20) %0, ptr noundef %68, i64 noundef %62)
  br label %69

69:                                               ; preds = %56, %60, %66, %6, %2, %_ZN3zmq6pipe_t17process_delimiterEv.exit, %._crit_edge
  %.0 = phi i1 [ false, %_ZN3zmq6pipe_t17process_delimiterEv.exit ], [ false, %._crit_edge ], [ false, %2 ], [ false, %6 ], [ true, %66 ], [ true, %60 ], [ true, %56 ]
  ret i1 %.0
}